; Function Attrs: mustprogress uwtable
define hidden void @_ZN4cvc58internal13preprocessing6passes22PseudoBooleanProcessor17applyReplacementsEPNS1_17AssertionPipelineE(ptr noundef nonnull align 8 dereferenceable(624) %0, ptr noundef %1) local_unnamed_addr #3 align 2 personality ptr @__gxx_personality_v0 {
  %3 = alloca %"class.cvc5::internal::NodeTemplate", align 8
  %4 = alloca %"class.cvc5::internal::NodeTemplate", align 8
  %5 = getelementptr inbounds nuw i8, ptr %1, i64 32
  %6 = getelementptr inbounds nuw i8, ptr %1, i64 40
  %7 = load ptr, ptr %6, align 8, !tbaa !71
  %8 = load ptr, ptr %5, align 8, !tbaa !73
  %.not = icmp eq ptr %7, %8
  br i1 %.not, label %._crit_edge, label %.lr.ph.preheader

.lr.ph.preheader:                                 ; preds = %2
  %9 = ptrtoint ptr %7 to i64
  %10 = ptrtoint ptr %8 to i64
  %11 = sub i64 %9, %10
  %12 = ashr exact i64 %11, 3
  %umax = tail call i64 @llvm.umax.i64(i64 %12, i64 1)
  br label %.lr.ph

._crit_edge:                                      ; preds = %_ZN4cvc58internal12NodeTemplateILb1EED2Ev.exit14, %2
  ret void

.lr.ph:                                           ; preds = %.lr.ph.preheader, %_ZN4cvc58internal12NodeTemplateILb1EED2Ev.exit14
  %.01115 = phi i64 [ %57, %_ZN4cvc58internal12NodeTemplateILb1EED2Ev.exit14 ], [ 0, %.lr.ph.preheader ]
  %13 = load ptr, ptr %5, align 8, !tbaa !73
  %14 = getelementptr inbounds nuw %"class.cvc5::internal::NodeTemplate", ptr %13, i64 %.01115
  %15 = load ptr, ptr %14, align 8, !tbaa !65
  store ptr %15, ptr %4, align 8, !tbaa !65
  %16 = load i64, ptr %15, align 8
  %17 = lshr i64 %16, 40
  %18 = trunc nuw nsw i64 %17 to i32
  %19 = and i32 %18, 1048575
  %20 = icmp samesign ult i32 %19, 1048574
  br i1 %20, label %21, label %26, !prof !68

21:                                               ; preds = %.lr.ph
  %22 = add i64 %16, 1099511627776
  %23 = and i64 %22, 1152920405095219200
  %24 = and i64 %16, -1152920405095219201
  %25 = or disjoint i64 %23, %24
  store i64 %25, ptr %15, align 8
  br label %_ZN4cvc58internal12NodeTemplateILb1EEC2ERKS2_.exit

26:                                               ; preds = %.lr.ph
  %27 = icmp eq i32 %19, 1048574
  br i1 %27, label %28, label %_ZN4cvc58internal12NodeTemplateILb1EEC2ERKS2_.exit, !prof !69

28:                                               ; preds = %26
  %29 = or i64 %16, 1152920405095219200
  store i64 %29, ptr %15, align 8
  call void @_ZN4cvc58internal4expr9NodeValue20markRefCountMaxedOutEv(ptr noundef nonnull align 8 dereferenceable(24) %15)
  br label %_ZN4cvc58internal12NodeTemplateILb1EEC2ERKS2_.exit

_ZN4cvc58internal12NodeTemplateILb1EEC2ERKS2_.exit: ; preds = %21, %26, %28
  invoke void @_ZN4cvc58internal13preprocessing6passes22PseudoBooleanProcessor17applyReplacementsENS0_12NodeTemplateILb1EEE(ptr dead_on_unwind nonnull writable sret(%"class.cvc5::internal::NodeTemplate") align 8 %3, ptr noundef nonnull align 8 dereferenceable(624) %0, ptr noundef nonnull %4)
          to label %30 unwind label %58

30:                                               ; preds = %_ZN4cvc58internal12NodeTemplateILb1EEC2ERKS2_.exit
  invoke void @_ZN4cvc58internal13preprocessing17AssertionPipeline7replaceEmNS0_12NodeTemplateILb1EEEPNS0_14ProofGeneratorENS0_7TrustIdE(ptr noundef nonnull align 8 dereferenceable(232) %1, i64 noundef %.01115, ptr noundef nonnull %3, ptr noundef null, i32 noundef 68)
          to label %31 unwind label %60

31:                                               ; preds = %30
  %32 = load ptr, ptr %3, align 8, !tbaa !65
  %33 = load i64, ptr %32, align 8
  %34 = and i64 %33, 1152920405095219200
  %.not.i.i = icmp eq i64 %34, 1152920405095219200
  br i1 %.not.i.i, label %_ZN4cvc58internal12NodeTemplateILb1EED2Ev.exit, label %35, !prof !69

35:                                               ; preds = %31
  %36 = add i64 %33, 1152920405095219200
  %37 = and i64 %36, 1152920405095219200
  %38 = and i64 %33, -1152920405095219201
  %39 = or disjoint i64 %37, %38
  store i64 %39, ptr %32, align 8
  %40 = icmp eq i64 %37, 0
  br i1 %40, label %41, label %_ZN4cvc58internal12NodeTemplateILb1EED2Ev.exit, !prof !69

41:                                               ; preds = %35
  invoke void @_ZN4cvc58internal4expr9NodeValue15markForDeletionEv(ptr noundef nonnull align 8 dereferenceable(24) %32)
          to label %_ZN4cvc58internal12NodeTemplateILb1EED2Ev.exit unwind label %42

42:                                               ; preds = %41
  %43 = landingpad { ptr, i32 }
          catch ptr null
  %44 = extractvalue { ptr, i32 } %43, 0
  call void @__clang_call_terminate(ptr %44) #27
  unreachable

_ZN4cvc58internal12NodeTemplateILb1EED2Ev.exit:   ; preds = %31, %35, %41
  %45 = load i64, ptr %15, align 8
  %46 = and i64 %45, 1152920405095219200
  %.not.i.i13 = icmp eq i64 %46, 1152920405095219200
  br i1 %.not.i.i13, label %_ZN4cvc58internal12NodeTemplateILb1EED2Ev.exit14, label %47, !prof !69

47:                                               ; preds = %_ZN4cvc58internal12NodeTemplateILb1EED2Ev.exit
  %48 = add i64 %45, 1152920405095219200
  %49 = and i64 %48, 1152920405095219200
  %50 = and i64 %45, -1152920405095219201
  %51 = or disjoint i64 %49, %50
  store i64 %51, ptr %15, align 8
  %52 = icmp eq i64 %49, 0
  br i1 %52, label %53, label %_ZN4cvc58internal12NodeTemplateILb1EED2Ev.exit14, !prof !69

53:                                               ; preds = %47
  invoke void @_ZN4cvc58internal4expr9NodeValue15markForDeletionEv(ptr noundef nonnull align 8 dereferenceable(24) %15)
          to label %_ZN4cvc58internal12NodeTemplateILb1EED2Ev.exit14 unwind label %54

54:                                               ; preds = %53
  %55 = landingpad { ptr, i32 }
          catch ptr null
  %56 = extractvalue { ptr, i32 } %55, 0
  call void @__clang_call_terminate(ptr %56) #27
  unreachable

_ZN4cvc58internal12NodeTemplateILb1EED2Ev.exit14: ; preds = %_ZN4cvc58internal12NodeTemplateILb1EED2Ev.exit, %47, %53
  %57 = add nuw i64 %.01115, 1
  %exitcond.not = icmp eq i64 %57, %umax
  br i1 %exitcond.not, label %._crit_edge, label %.lr.ph, !llvm.loop !74

58:                                               ; preds = %_ZN4cvc58internal12NodeTemplateILb1EEC2ERKS2_.exit
  %59 = landingpad { ptr, i32 }
          cleanup
  br label %62

60:                                               ; preds = %30
  %61 = landingpad { ptr, i32 }
          cleanup
  call void @_ZN4cvc58internal12NodeTemplateILb1EED2Ev(ptr noundef nonnull align 8 dereferenceable(8) %3) #25
  br label %62

62:                                               ; preds = %60, %58
  %.pn = phi { ptr, i32 } [ %61, %60 ], [ %59, %58 ]
  call void @_ZN4cvc58internal12NodeTemplateILb1EED2Ev(ptr noundef nonnull align 8 dereferenceable(8) %4) #25
  resume { ptr, i32 } %.pn
}